; Function Attrs: mustprogress nounwind uwtable
define dso_local void @_ZNK4llvm3opt8OptTable9ParseArgsENS_8ArrayRefIPKcEERjS6_NS0_10VisibilityE(ptr dead_on_unwind noalias writable sret(%"class.llvm::opt::InputArgList") align 8 %0, ptr noundef nonnull align 8 dereferenceable(88) %1, ptr %2, i64 %3, ptr noundef nonnull writeonly align 4 captures(none) dereferenceable(4) initializes((0, 4)) %4, ptr noundef nonnull writeonly align 4 captures(none) dereferenceable(4) initializes((0, 4)) %5, i32 %6) local_unnamed_addr #1 align 2 {
  %8 = alloca %"class.std::function.37", align 8
  %9 = getelementptr inbounds nuw i8, ptr %8, i64 16
  %10 = getelementptr inbounds nuw i8, ptr %8, i64 24
  call void @llvm.memset.p0.i64(ptr noundef nonnull align 8 dereferenceable(32) %8, i8 0, i64 16, i1 false)
  store i32 %6, ptr %8, align 8
  store ptr @"_ZNSt17_Function_handlerIFbRKN4llvm3opt6OptionEEZNKS1_8OptTable9ParseArgsENS0_8ArrayRefIPKcEERjSB_NS1_10VisibilityEE3$_0E9_M_invokeERKSt9_Any_dataS4_", ptr %10, align 8
  store ptr @"_ZNSt17_Function_handlerIFbRKN4llvm3opt6OptionEEZNKS1_8OptTable9ParseArgsENS0_8ArrayRefIPKcEERjSB_NS1_10VisibilityEE3$_0E10_M_managerERSt9_Any_dataRKSF_St18_Manager_operation", ptr %9, align 8
  call void @_ZNK4llvm3opt8OptTable17internalParseArgsENS_8ArrayRefIPKcEERjS6_St8functionIFbRKNS0_6OptionEEE(ptr dead_on_unwind writable sret(%"class.llvm::opt::InputArgList") align 8 %0, ptr noundef nonnull align 8 dereferenceable(88) %1, ptr %2, i64 %3, ptr noundef nonnull align 4 dereferenceable(4) %4, ptr noundef nonnull align 4 dereferenceable(4) %5, ptr noundef nonnull %8)
  %11 = load ptr, ptr %9, align 8
  %.not.i.i = icmp eq ptr %11, null
  br i1 %.not.i.i, label %_ZNSt8functionIFbRKN4llvm3opt6OptionEEED2Ev.exit, label %12

12:                                               ; preds = %7
  %13 = call noundef zeroext i1 %11(ptr noundef nonnull align 8 dereferenceable(32) %8, ptr noundef nonnull align 8 dereferenceable(32) %8, i32 noundef 3) #22
  br label %_ZNSt8functionIFbRKN4llvm3opt6OptionEEED2Ev.exit

_ZNSt8functionIFbRKN4llvm3opt6OptionEEED2Ev.exit: ; preds = %7, %12
  ret void
}